target datalayout = "e-m:e-p270:32:32-p271:32:32-p272:64:64-i64:64-i128:128-f80:128-n8:16:32:64-S128"
target triple = "x86_64-pc-linux-gnu"

%"struct.std::atomic" = type { %"struct.std::__atomic_base" }
%"struct.std::__atomic_base" = type { i32 }
%"class.pxrInternal_v0_24__pxrReserved__::HdNoticeBatchingSceneIndex" = type { %"class.pxrInternal_v0_24__pxrReserved__::HdSingleInputFilteringSceneIndexBase", i8, %"class.std::vector.12" }
%"class.pxrInternal_v0_24__pxrReserved__::HdSingleInputFilteringSceneIndexBase" = type { %"class.pxrInternal_v0_24__pxrReserved__::HdFilteringSceneIndexBase", %"class.pxrInternal_v0_24__pxrReserved__::TfRefPtr", %"class.pxrInternal_v0_24__pxrReserved__::HdSingleInputFilteringSceneIndexBase::_Observer" }
%"class.pxrInternal_v0_24__pxrReserved__::HdFilteringSceneIndexBase" = type { %"class.pxrInternal_v0_24__pxrReserved__::HdSceneIndexBase" }
%"class.pxrInternal_v0_24__pxrReserved__::HdSceneIndexBase" = type { %"class.pxrInternal_v0_24__pxrReserved__::TfRefBase.base", %"class.pxrInternal_v0_24__pxrReserved__::TfWeakBase", %"class.std::vector", i32, i8, %"class.std::__cxx11::basic_string", %"class.pxrInternal_v0_24__pxrReserved__::TfDenseHashSet" }
%"class.pxrInternal_v0_24__pxrReserved__::TfRefBase.base" = type <{ ptr, %"struct.std::atomic" }>
%"class.pxrInternal_v0_24__pxrReserved__::TfWeakBase" = type { %"struct.std::atomic.0" }
%"struct.std::atomic.0" = type { %"struct.std::__atomic_base.1" }
%"struct.std::__atomic_base.1" = type { ptr }
%"class.std::vector" = type { %"struct.std::_Vector_base" }
%"struct.std::_Vector_base" = type { %"struct.std::_Vector_base<pxrInternal_v0_24__pxrReserved__::TfWeakPtr<pxrInternal_v0_24__pxrReserved__::HdSceneIndexObserver>, std::allocator<pxrInternal_v0_24__pxrReserved__::TfWeakPtr<pxrInternal_v0_24__pxrReserved__::HdSceneIndexObserver>>>::_Vector_impl" }
%"struct.std::_Vector_base<pxrInternal_v0_24__pxrReserved__::TfWeakPtr<pxrInternal_v0_24__pxrReserved__::HdSceneIndexObserver>, std::allocator<pxrInternal_v0_24__pxrReserved__::TfWeakPtr<pxrInternal_v0_24__pxrReserved__::HdSceneIndexObserver>>>::_Vector_impl" = type { %"struct.std::_Vector_base<pxrInternal_v0_24__pxrReserved__::TfWeakPtr<pxrInternal_v0_24__pxrReserved__::HdSceneIndexObserver>, std::allocator<pxrInternal_v0_24__pxrReserved__::TfWeakPtr<pxrInternal_v0_24__pxrReserved__::HdSceneIndexObserver>>>::_Vector_impl_data" }
%"struct.std::_Vector_base<pxrInternal_v0_24__pxrReserved__::TfWeakPtr<pxrInternal_v0_24__pxrReserved__::HdSceneIndexObserver>, std::allocator<pxrInternal_v0_24__pxrReserved__::TfWeakPtr<pxrInternal_v0_24__pxrReserved__::HdSceneIndexObserver>>>::_Vector_impl_data" = type { ptr, ptr, ptr }
%"class.std::__cxx11::basic_string" = type { %"struct.std::__cxx11::basic_string<char>::_Alloc_hider", i64, %union.anon }
%"struct.std::__cxx11::basic_string<char>::_Alloc_hider" = type { ptr }
%union.anon = type { i64, [8 x i8] }
%"class.pxrInternal_v0_24__pxrReserved__::TfDenseHashSet" = type { %"struct.pxrInternal_v0_24__pxrReserved__::TfDenseHashSet<pxrInternal_v0_24__pxrReserved__::TfToken, pxrInternal_v0_24__pxrReserved__::TfHash, std::equal_to<pxrInternal_v0_24__pxrReserved__::TfToken>, 8>::_CompressedStorage", %"class.std::unique_ptr" }
%"struct.pxrInternal_v0_24__pxrReserved__::TfDenseHashSet<pxrInternal_v0_24__pxrReserved__::TfToken, pxrInternal_v0_24__pxrReserved__::TfHash, std::equal_to<pxrInternal_v0_24__pxrReserved__::TfToken>, 8>::_CompressedStorage" = type { %"class.std::vector.5" }
%"class.std::vector.5" = type { %"struct.std::_Vector_base.6" }
%"struct.std::_Vector_base.6" = type { %"struct.std::_Vector_base<pxrInternal_v0_24__pxrReserved__::TfToken, std::allocator<pxrInternal_v0_24__pxrReserved__::TfToken>>::_Vector_impl" }
%"struct.std::_Vector_base<pxrInternal_v0_24__pxrReserved__::TfToken, std::allocator<pxrInternal_v0_24__pxrReserved__::TfToken>>::_Vector_impl" = type { %"struct.std::_Vector_base<pxrInternal_v0_24__pxrReserved__::TfToken, std::allocator<pxrInternal_v0_24__pxrReserved__::TfToken>>::_Vector_impl_data" }
%"struct.std::_Vector_base<pxrInternal_v0_24__pxrReserved__::TfToken, std::allocator<pxrInternal_v0_24__pxrReserved__::TfToken>>::_Vector_impl_data" = type { ptr, ptr, ptr }
%"class.std::unique_ptr" = type { %"struct.std::__uniq_ptr_data" }
%"struct.std::__uniq_ptr_data" = type { %"class.std::__uniq_ptr_impl" }
%"class.std::__uniq_ptr_impl" = type { %"class.std::tuple" }
%"class.std::tuple" = type { %"struct.std::_Tuple_impl" }
%"struct.std::_Tuple_impl" = type { %"struct.std::_Head_base.11" }
%"struct.std::_Head_base.11" = type { ptr }
%"class.pxrInternal_v0_24__pxrReserved__::TfRefPtr" = type { ptr }
%"class.pxrInternal_v0_24__pxrReserved__::HdSingleInputFilteringSceneIndexBase::_Observer" = type { %"class.pxrInternal_v0_24__pxrReserved__::HdSceneIndexObserver", ptr }
%"class.pxrInternal_v0_24__pxrReserved__::HdSceneIndexObserver" = type { ptr, %"class.pxrInternal_v0_24__pxrReserved__::TfWeakBase" }
%"class.std::vector.12" = type { %"struct.std::_Vector_base.13" }
%"struct.std::_Vector_base.13" = type { %"struct.std::_Vector_base<std::unique_ptr<pxrInternal_v0_24__pxrReserved__::HdNoticeBatchingSceneIndex::_BatchEntry>, std::allocator<std::unique_ptr<pxrInternal_v0_24__pxrReserved__::HdNoticeBatchingSceneIndex::_BatchEntry>>>::_Vector_impl" }
%"struct.std::_Vector_base<std::unique_ptr<pxrInternal_v0_24__pxrReserved__::HdNoticeBatchingSceneIndex::_BatchEntry>, std::allocator<std::unique_ptr<pxrInternal_v0_24__pxrReserved__::HdNoticeBatchingSceneIndex::_BatchEntry>>>::_Vector_impl" = type { %"struct.std::_Vector_base<std::unique_ptr<pxrInternal_v0_24__pxrReserved__::HdNoticeBatchingSceneIndex::_BatchEntry>, std::allocator<std::unique_ptr<pxrInternal_v0_24__pxrReserved__::HdNoticeBatchingSceneIndex::_BatchEntry>>>::_Vector_impl_data" }
%"struct.std::_Vector_base<std::unique_ptr<pxrInternal_v0_24__pxrReserved__::HdNoticeBatchingSceneIndex::_BatchEntry>, std::allocator<std::unique_ptr<pxrInternal_v0_24__pxrReserved__::HdNoticeBatchingSceneIndex::_BatchEntry>>>::_Vector_impl_data" = type { ptr, ptr, ptr }
%"class.__gnu_cxx::__normal_iterator.49" = type { ptr }

; Function Attrs: mustprogress nounwind uwtable
define linkonce_odr noundef nonnull align 8 dereferenceable(8) ptr @_ZNK9__gnu_cxx17__normal_iteratorIPKSt10unique_ptrIN32pxrInternal_v0_24__pxrReserved__26HdNoticeBatchingSceneIndex11_BatchEntryESt14default_deleteIS4_EESt6vectorIS7_SaIS7_EEE4baseEv(ptr noundef nonnull align 8 dereferenceable(8) %0) #0 comdat align 2 {
  %2 = alloca ptr, align 8
  store ptr %0, ptr %2, align 8
  %3 = load ptr, ptr %2, align 8
  %4 = getelementptr inbounds nuw %"class.__gnu_cxx::__normal_iterator.49", ptr %3, i32 0, i32 0
  ret ptr %4
}

; Function Attrs: mustprogress nounwind uwtable
define linkonce_odr void @_ZN9__gnu_cxx17__normal_iteratorIPKSt10unique_ptrIN32pxrInternal_v0_24__pxrReserved__26HdNoticeBatchingSceneIndex11_BatchEntryESt14default_deleteIS4_EESt6vectorIS7_SaIS7_EEEC2ERKS9_(ptr noundef nonnull align 8 dereferenceable(8) %0, ptr noundef nonnull align 8 dereferenceable(8) %1) unnamed_addr #0 comdat align 2 {
  %3 = alloca ptr, align 8
  %4 = alloca ptr, align 8
  store ptr %0, ptr %3, align 8
  store ptr %1, ptr %4, align 8
  %5 = load ptr, ptr %3, align 8
  %6 = getelementptr inbounds nuw %"class.__gnu_cxx::__normal_iterator.49", ptr %5, i32 0, i32 0
  %7 = load ptr, ptr %4, align 8
  %8 = load ptr, ptr %7, align 8
  store ptr %8, ptr %6, align 8
  ret void
}

; Function Attrs: mustprogress nounwind uwtable
define linkonce_odr noundef zeroext i1 @_ZN9__gnu_cxxeqIPKSt10unique_ptrIN32pxrInternal_v0_24__pxrReserved__26HdNoticeBatchingSceneIndex11_BatchEntryESt14default_deleteIS4_EESt6vectorIS7_SaIS7_EEEEbRKNS_17__normal_iteratorIT_T0_EESI_(ptr noundef nonnull align 8 dereferenceable(8) %0, ptr noundef nonnull align 8 dereferenceable(8) %1) #0 comdat {
  %3 = alloca ptr, align 8
  %4 = alloca ptr, align 8
  store ptr %0, ptr %3, align 8
  store ptr %1, ptr %4, align 8
  %5 = load ptr, ptr %3, align 8
  %6 = call noundef nonnull align 8 dereferenceable(8) ptr @_ZNK9__gnu_cxx17__normal_iteratorIPKSt10unique_ptrIN32pxrInternal_v0_24__pxrReserved__26HdNoticeBatchingSceneIndex11_BatchEntryESt14default_deleteIS4_EESt6vectorIS7_SaIS7_EEE4baseEv(ptr noundef nonnull align 8 dereferenceable(8) %5) #13
  %7 = load ptr, ptr %6, align 8
  %8 = load ptr, ptr %4, align 8
  %9 = call noundef nonnull align 8 dereferenceable(8) ptr @_ZNK9__gnu_cxx17__normal_iteratorIPKSt10unique_ptrIN32pxrInternal_v0_24__pxrReserved__26HdNoticeBatchingSceneIndex11_BatchEntryESt14default_deleteIS4_EESt6vectorIS7_SaIS7_EEE4baseEv(ptr noundef nonnull align 8 dereferenceable(8) %8) #13
  %10 = load ptr, ptr %9, align 8
  %11 = icmp eq ptr %7, %10
  ret i1 %11
}

; Function Attrs: mustprogress nounwind uwtable
define linkonce_odr ptr @_ZNKSt6vectorISt10unique_ptrIN32pxrInternal_v0_24__pxrReserved__26HdNoticeBatchingSceneIndex11_BatchEntryESt14default_deleteIS3_EESaIS6_EE3endEv(ptr noundef nonnull align 8 dereferenceable(24) %0) #0 comdat align 2 {
  %2 = alloca %"class.__gnu_cxx::__normal_iterator.49", align 8
  %3 = alloca ptr, align 8
  store ptr %0, ptr %3, align 8
  %4 = load ptr, ptr %3, align 8
  %5 = getelementptr inbounds nuw %"struct.std::_Vector_base.13", ptr %4, i32 0, i32 0
  %6 = getelementptr inbounds nuw %"struct.std::_Vector_base<std::unique_ptr<pxrInternal_v0_24__pxrReserved__::HdNoticeBatchingSceneIndex::_BatchEntry>, std::allocator<std::unique_ptr<pxrInternal_v0_24__pxrReserved__::HdNoticeBatchingSceneIndex::_BatchEntry>>>::_Vector_impl_data", ptr %5, i32 0, i32 1
  call void @_ZN9__gnu_cxx17__normal_iteratorIPKSt10unique_ptrIN32pxrInternal_v0_24__pxrReserved__26HdNoticeBatchingSceneIndex11_BatchEntryESt14default_deleteIS4_EESt6vectorIS7_SaIS7_EEEC2ERKS9_(ptr noundef nonnull align 8 dereferenceable(8) %2, ptr noundef nonnull align 8 dereferenceable(8) %6) #13
  %7 = getelementptr inbounds nuw %"class.__gnu_cxx::__normal_iterator.49", ptr %2, i32 0, i32 0
  %8 = load ptr, ptr %7, align 8
  ret ptr %8
}

; Function Attrs: mustprogress nounwind uwtable
define linkonce_odr ptr @_ZNKSt6vectorISt10unique_ptrIN32pxrInternal_v0_24__pxrReserved__26HdNoticeBatchingSceneIndex11_BatchEntryESt14default_deleteIS3_EESaIS6_EE5beginEv(ptr noundef nonnull align 8 dereferenceable(24) %0) #0 comdat align 2 {
  %2 = alloca %"class.__gnu_cxx::__normal_iterator.49", align 8
  %3 = alloca ptr, align 8
  store ptr %0, ptr %3, align 8
  %4 = load ptr, ptr %3, align 8
  %5 = getelementptr inbounds nuw %"struct.std::_Vector_base.13", ptr %4, i32 0, i32 0
  %6 = getelementptr inbounds nuw %"struct.std::_Vector_base<std::unique_ptr<pxrInternal_v0_24__pxrReserved__::HdNoticeBatchingSceneIndex::_BatchEntry>, std::allocator<std::unique_ptr<pxrInternal_v0_24__pxrReserved__::HdNoticeBatchingSceneIndex::_BatchEntry>>>::_Vector_impl_data", ptr %5, i32 0, i32 0
  call void @_ZN9__gnu_cxx17__normal_iteratorIPKSt10unique_ptrIN32pxrInternal_v0_24__pxrReserved__26HdNoticeBatchingSceneIndex11_BatchEntryESt14default_deleteIS4_EESt6vectorIS7_SaIS7_EEEC2ERKS9_(ptr noundef nonnull align 8 dereferenceable(8) %2, ptr noundef nonnull align 8 dereferenceable(8) %6) #13
  %7 = getelementptr inbounds nuw %"class.__gnu_cxx::__normal_iterator.49", ptr %2, i32 0, i32 0
  %8 = load ptr, ptr %7, align 8
  ret ptr %8
}

; Function Attrs: mustprogress nounwind uwtable
define linkonce_odr noundef zeroext i1 @_ZNKSt6vectorISt10unique_ptrIN32pxrInternal_v0_24__pxrReserved__26HdNoticeBatchingSceneIndex11_BatchEntryESt14default_deleteIS3_EESaIS6_EE5emptyEv(ptr noundef nonnull align 8 dereferenceable(24) %0) #0 comdat align 2 {
  %2 = alloca ptr, align 8
  %3 = alloca %"class.__gnu_cxx::__normal_iterator.49", align 8
  %4 = alloca %"class.__gnu_cxx::__normal_iterator.49", align 8
  store ptr %0, ptr %2, align 8
  %5 = load ptr, ptr %2, align 8
  %6 = call ptr @_ZNKSt6vectorISt10unique_ptrIN32pxrInternal_v0_24__pxrReserved__26HdNoticeBatchingSceneIndex11_BatchEntryESt14default_deleteIS3_EESaIS6_EE5beginEv(ptr noundef nonnull align 8 dereferenceable(24) %5) #13
  %7 = getelementptr inbounds nuw %"class.__gnu_cxx::__normal_iterator.49", ptr %3, i32 0, i32 0
  store ptr %6, ptr %7, align 8
  %8 = call ptr @_ZNKSt6vectorISt10unique_ptrIN32pxrInternal_v0_24__pxrReserved__26HdNoticeBatchingSceneIndex11_BatchEntryESt14default_deleteIS3_EESaIS6_EE3endEv(ptr noundef nonnull align 8 dereferenceable(24) %5) #13
  %9 = getelementptr inbounds nuw %"class.__gnu_cxx::__normal_iterator.49", ptr %4, i32 0, i32 0
  store ptr %8, ptr %9, align 8
  %10 = call noundef zeroext i1 @_ZN9__gnu_cxxeqIPKSt10unique_ptrIN32pxrInternal_v0_24__pxrReserved__26HdNoticeBatchingSceneIndex11_BatchEntryESt14default_deleteIS4_EESt6vectorIS7_SaIS7_EEEEbRKNS_17__normal_iteratorIT_T0_EESI_(ptr noundef nonnull align 8 dereferenceable(8) %3, ptr noundef nonnull align 8 dereferenceable(8) %4) #13
  ret i1 %10
}

; Function Attrs: mustprogress uwtable
define void @_ZN32pxrInternal_v0_24__pxrReserved__26HdNoticeBatchingSceneIndex18SetBatchingEnabledEb(ptr noundef nonnull align 8 dereferenceable(184) %0, i1 noundef zeroext %1) #2 align 2 {
  %3 = alloca ptr, align 8
  %4 = alloca i8, align 1
  store ptr %0, ptr %3, align 8
  %5 = zext i1 %1 to i8
  store i8 %5, ptr %4, align 1
  %6 = load ptr, ptr %3, align 8
  %7 = getelementptr inbounds nuw %"class.pxrInternal_v0_24__pxrReserved__::HdNoticeBatchingSceneIndex", ptr %6, i32 0, i32 1
  %8 = load i8, ptr %7, align 8
  %9 = trunc i8 %8 to i1
  %10 = zext i1 %9 to i32
  %11 = load i8, ptr %4, align 1
  %12 = trunc i8 %11 to i1
  %13 = zext i1 %12 to i32
  %14 = icmp ne i32 %10, %13
  br i1 %14, label %15, label %27

15:                                               ; preds = %2
  %16 = load i8, ptr %4, align 1
  %17 = trunc i8 %16 to i1
  %18 = getelementptr inbounds nuw %"class.pxrInternal_v0_24__pxrReserved__::HdNoticeBatchingSceneIndex", ptr %6, i32 0, i32 1
  %19 = zext i1 %17 to i8
  store i8 %19, ptr %18, align 8
  %20 = load i8, ptr %4, align 1
  %21 = trunc i8 %20 to i1
  br i1 %21, label %26, label %22

22:                                               ; preds = %15
  %23 = getelementptr inbounds nuw %"class.pxrInternal_v0_24__pxrReserved__::HdNoticeBatchingSceneIndex", ptr %6, i32 0, i32 2
  %24 = call noundef zeroext i1 @_ZNKSt6vectorISt10unique_ptrIN32pxrInternal_v0_24__pxrReserved__26HdNoticeBatchingSceneIndex11_BatchEntryESt14default_deleteIS3_EESaIS6_EE5emptyEv(ptr noundef nonnull align 8 dereferenceable(24) %23) #13
  br i1 %24, label %26, label %25

25:                                               ; preds = %22
  call void @_ZN32pxrInternal_v0_24__pxrReserved__26HdNoticeBatchingSceneIndex5FlushEv(ptr noundef nonnull align 8 dereferenceable(184) %6)
  br label %26

26:                                               ; preds = %25, %22, %15
  br label %27

27:                                               ; preds = %26, %2
  ret void
}