; Function Attrs: mustprogress uwtable
define void @_ZN32pxrInternal_v0_24__pxrReserved__26HdNoticeBatchingSceneIndex18SetBatchingEnabledEb(ptr noundef nonnull align 8 dereferenceable(184) %0, i1 noundef zeroext %1) local_unnamed_addr #3 align 2 {
  %3 = getelementptr inbounds nuw i8, ptr %0, i64 152
  %4 = load i8, ptr %3, align 8
  %5 = trunc i8 %4 to i1
  %6 = xor i1 %1, %5
  br i1 %6, label %7, label %16

7:                                                ; preds = %2
  %8 = zext i1 %1 to i8
  store i8 %8, ptr %3, align 8
  br i1 %1, label %16, label %9

9:                                                ; preds = %7
  %10 = getelementptr inbounds nuw i8, ptr %0, i64 160
  %11 = load ptr, ptr %10, align 8
  %12 = getelementptr inbounds i8, ptr %0, i64 168
  %13 = load ptr, ptr %12, align 8
  %14 = icmp eq ptr %11, %13
  br i1 %14, label %16, label %15

15:                                               ; preds = %9
  tail call void @_ZN32pxrInternal_v0_24__pxrReserved__26HdNoticeBatchingSceneIndex5FlushEv(ptr noundef nonnull align 8 dereferenceable(184) %0)
  br label %16

16:                                               ; preds = %7, %9, %15, %2
  ret void
}